target datalayout = "e-m:e-p270:32:32-p271:32:32-p272:64:64-i64:64-i128:128-f80:128-n8:16:32:64-S128"
target triple = "x86_64-unknown-linux-gnu"

%"class.facebook::velox::memory::MemoryManager" = type { i64, %"class.std::shared_ptr", %"class.std::unique_ptr", i16, i8, i8, i8, %"class.std::function", %"class.std::shared_ptr.2", %"class.std::vector", %"class.folly::SharedMutexImpl", %"class.std::unordered_map" }
%"class.std::shared_ptr" = type { %"class.std::__shared_ptr" }
%"class.std::__shared_ptr" = type { ptr, %"class.std::__shared_count" }
%"class.std::__shared_count" = type { ptr }
%"class.std::unique_ptr" = type { %"struct.std::__uniq_ptr_data" }
%"struct.std::__uniq_ptr_data" = type { %"class.std::__uniq_ptr_impl" }
%"class.std::__uniq_ptr_impl" = type { %"class.std::tuple" }
%"class.std::tuple" = type { %"struct.std::_Tuple_impl" }
%"struct.std::_Tuple_impl" = type { %"struct.std::_Head_base.1" }
%"struct.std::_Head_base.1" = type { ptr }
%"class.std::function" = type { %"class.std::_Function_base", ptr }
%"class.std::_Function_base" = type { %"union.std::_Any_data", ptr }
%"union.std::_Any_data" = type { %"union.std::_Nocopy_types" }
%"union.std::_Nocopy_types" = type { { i64, i64 } }
%"class.std::shared_ptr.2" = type { %"class.std::__shared_ptr.3" }
%"class.std::__shared_ptr.3" = type { ptr, %"class.std::__shared_count" }
%"class.std::vector" = type { %"struct.std::_Vector_base" }
%"struct.std::_Vector_base" = type { %"struct.std::_Vector_base<std::shared_ptr<facebook::velox::memory::MemoryPool>, std::allocator<std::shared_ptr<facebook::velox::memory::MemoryPool>>>::_Vector_impl" }
%"struct.std::_Vector_base<std::shared_ptr<facebook::velox::memory::MemoryPool>, std::allocator<std::shared_ptr<facebook::velox::memory::MemoryPool>>>::_Vector_impl" = type { %"struct.std::_Vector_base<std::shared_ptr<facebook::velox::memory::MemoryPool>, std::allocator<std::shared_ptr<facebook::velox::memory::MemoryPool>>>::_Vector_impl_data" }
%"struct.std::_Vector_base<std::shared_ptr<facebook::velox::memory::MemoryPool>, std::allocator<std::shared_ptr<facebook::velox::memory::MemoryPool>>>::_Vector_impl_data" = type { ptr, ptr, ptr }
%"class.folly::SharedMutexImpl" = type { %"struct.std::atomic" }
%"struct.std::atomic" = type { %"struct.std::__atomic_base" }
%"struct.std::__atomic_base" = type { i32 }
%"class.std::unordered_map" = type { %"class.std::_Hashtable" }
%"class.std::_Hashtable" = type { ptr, i64, %"struct.std::__detail::_Hash_node_base", i64, %"struct.std::__detail::_Prime_rehash_policy", ptr }
%"struct.std::__detail::_Hash_node_base" = type { ptr }
%"struct.std::__detail::_Prime_rehash_policy" = type { float, i64 }
%"class.std::__cxx11::basic_string" = type { %"struct.std::__cxx11::basic_string<char>::_Alloc_hider", i64, %union.anon }
%"struct.std::__cxx11::basic_string<char>::_Alloc_hider" = type { ptr }
%union.anon = type { i64, [8 x i8] }
%"class.std::function.13" = type { %"class.std::_Function_base", ptr }
%"struct.facebook::velox::memory::MemoryManagerOptions" = type { i16, i64, i64, i8, i8, i8, i8, ptr, %"class.std::__cxx11::basic_string", i64, i64, i64, %"class.std::function.13" }

@_ZZN8facebook5velox6memory13MemoryManager11getInstanceERKNS1_20MemoryManagerOptionsEE7manager = internal global %"class.facebook::velox::memory::MemoryManager" zeroinitializer, align 8
@_ZGVZN8facebook5velox6memory13MemoryManager11getInstanceERKNS1_20MemoryManagerOptionsEE7manager = internal global i64 0, align 8
@__dso_handle = external hidden global i8
@_ZN3fLB60FLAGS_velox_enable_memory_usage_track_in_default_memory_poolE = external global i8, align 1
@_ZN3fLB37FLAGS_velox_memory_leak_check_enabledE = external global i8, align 1
@_ZN3fLB37FLAGS_velox_memory_pool_debug_enabledE = external global i8, align 1
@_ZN8facebook5velox6memory13MemoryManagerC1ERKNS1_20MemoryManagerOptionsE = unnamed_addr alias void (ptr, ptr), ptr @_ZN8facebook5velox6memory13MemoryManagerC2ERKNS1_20MemoryManagerOptionsE
@_ZN8facebook5velox6memory13MemoryManagerD1Ev = unnamed_addr alias void (ptr), ptr @_ZN8facebook5velox6memory13MemoryManagerD2Ev

; Function Attrs: mustprogress nounwind uwtable
define linkonce_odr void @_ZNSt14_Function_baseC2Ev(ptr noundef nonnull align 8 dereferenceable(24) %this) unnamed_addr #2 comdat align 2 {
entry:
  %this.addr = alloca ptr, align 8
  store ptr %this, ptr %this.addr, align 8
  %this1 = load ptr, ptr %this.addr, align 8
  %_M_functor = getelementptr inbounds %"class.std::_Function_base", ptr %this1, i32 0, i32 0
  store ptr null, ptr %_M_functor, align 8
  %_M_manager = getelementptr inbounds %"class.std::_Function_base", ptr %this1, i32 0, i32 1
  store ptr null, ptr %_M_manager, align 8
  ret void
}

; Function Attrs: mustprogress uwtable
define noundef nonnull align 8 dereferenceable(176) ptr @_ZN8facebook5velox6memory13MemoryManager11getInstanceERKNS1_20MemoryManagerOptionsE(ptr noundef nonnull align 8 dereferenceable(128) %options) #0 align 2 personality ptr @__gxx_personality_v0 {
entry:
  %options.addr = alloca ptr, align 8
  %exn.slot = alloca ptr, align 8
  %ehselector.slot = alloca i32, align 4
  store ptr %options, ptr %options.addr, align 8
  %0 = load atomic i8, ptr @_ZGVZN8facebook5velox6memory13MemoryManager11getInstanceERKNS1_20MemoryManagerOptionsEE7manager acquire, align 8
  %guard.uninitialized = icmp eq i8 %0, 0
  br i1 %guard.uninitialized, label %init.check, label %init.end, !prof !12

init.check:                                       ; preds = %entry
  %1 = call i32 @__cxa_guard_acquire(ptr @_ZGVZN8facebook5velox6memory13MemoryManager11getInstanceERKNS1_20MemoryManagerOptionsEE7manager) #6
  %tobool = icmp ne i32 %1, 0
  br i1 %tobool, label %init, label %init.end

init:                                             ; preds = %init.check
  %2 = load ptr, ptr %options.addr, align 8
  invoke void @_ZN8facebook5velox6memory13MemoryManagerC1ERKNS1_20MemoryManagerOptionsE(ptr noundef nonnull align 8 dereferenceable(176) @_ZZN8facebook5velox6memory13MemoryManager11getInstanceERKNS1_20MemoryManagerOptionsEE7manager, ptr noundef nonnull align 8 dereferenceable(128) %2)
          to label %invoke.cont unwind label %lpad

invoke.cont:                                      ; preds = %init
  %3 = call i32 @__cxa_atexit(ptr @_ZN8facebook5velox6memory13MemoryManagerD1Ev, ptr @_ZZN8facebook5velox6memory13MemoryManager11getInstanceERKNS1_20MemoryManagerOptionsEE7manager, ptr @__dso_handle) #6
  call void @__cxa_guard_release(ptr @_ZGVZN8facebook5velox6memory13MemoryManager11getInstanceERKNS1_20MemoryManagerOptionsEE7manager) #6
  br label %init.end

init.end:                                         ; preds = %invoke.cont, %init.check, %entry
  ret ptr @_ZZN8facebook5velox6memory13MemoryManager11getInstanceERKNS1_20MemoryManagerOptionsEE7manager

lpad:                                             ; preds = %init
  %4 = landingpad { ptr, i32 }
          cleanup
  %5 = extractvalue { ptr, i32 } %4, 0
  store ptr %5, ptr %exn.slot, align 8
  %6 = extractvalue { ptr, i32 } %4, 1
  store i32 %6, ptr %ehselector.slot, align 4
  call void @__cxa_guard_abort(ptr @_ZGVZN8facebook5velox6memory13MemoryManager11getInstanceERKNS1_20MemoryManagerOptionsEE7manager) #6
  br label %eh.resume

eh.resume:                                        ; preds = %lpad
  %exn = load ptr, ptr %exn.slot, align 8
  %sel = load i32, ptr %ehselector.slot, align 4
  %lpad.val = insertvalue { ptr, i32 } poison, ptr %exn, 0
  %lpad.val1 = insertvalue { ptr, i32 } %lpad.val, i32 %sel, 1
  resume { ptr, i32 } %lpad.val1
}

; Function Attrs: mustprogress nounwind uwtable
define linkonce_odr void @_ZNSt8functionIFvRN8facebook5velox6memory10MemoryPoolEEEC2EDn(ptr noundef nonnull align 8 dereferenceable(32) %this, ptr %0) unnamed_addr #2 comdat align 2 {
entry:
  %this.addr = alloca ptr, align 8
  %.addr = alloca ptr, align 8
  store ptr %this, ptr %this.addr, align 8
  store ptr %0, ptr %.addr, align 8
  %this1 = load ptr, ptr %this.addr, align 8
  %1 = getelementptr inbounds i8, ptr %this1, i64 0
  call void @llvm.memset.p0.i64(ptr align 8 %1, i8 0, i64 24, i1 false)
  call void @_ZNSt14_Function_baseC2Ev(ptr noundef nonnull align 8 dereferenceable(24) %this1) #6
  %_M_invoker = getelementptr inbounds %"class.std::function.13", ptr %this1, i32 0, i32 1
  store ptr null, ptr %_M_invoker, align 8
  ret void
}

; Function Attrs: mustprogress uwtable
define noundef nonnull align 8 dereferenceable(176) ptr @_ZN8facebook5velox6memory20defaultMemoryManagerEv() #0 personality ptr @__gxx_personality_v0 {
entry:
  %ref.tmp = alloca %"struct.facebook::velox::memory::MemoryManagerOptions", align 8
  %exn.slot = alloca ptr, align 8
  %ehselector.slot = alloca i32, align 4
  %alignment = getelementptr inbounds %"struct.facebook::velox::memory::MemoryManagerOptions", ptr %ref.tmp, i32 0, i32 0
  store i16 64, ptr %alignment, align 8
  %capacity = getelementptr inbounds %"struct.facebook::velox::memory::MemoryManagerOptions", ptr %ref.tmp, i32 0, i32 1
  store i64 9223372036854775807, ptr %capacity, align 8
  %queryMemoryCapacity = getelementptr inbounds %"struct.facebook::velox::memory::MemoryManagerOptions", ptr %ref.tmp, i32 0, i32 2
  store i64 9223372036854775807, ptr %queryMemoryCapacity, align 8
  %trackDefaultUsage = getelementptr inbounds %"struct.facebook::velox::memory::MemoryManagerOptions", ptr %ref.tmp, i32 0, i32 3
  %0 = load i8, ptr @_ZN3fLB60FLAGS_velox_enable_memory_usage_track_in_default_memory_poolE, align 1
  %tobool = trunc i8 %0 to i1
  %frombool = zext i1 %tobool to i8
  store i8 %frombool, ptr %trackDefaultUsage, align 8
  %checkUsageLeak = getelementptr inbounds %"struct.facebook::velox::memory::MemoryManagerOptions", ptr %ref.tmp, i32 0, i32 4
  %1 = load i8, ptr @_ZN3fLB37FLAGS_velox_memory_leak_check_enabledE, align 1
  %tobool1 = trunc i8 %1 to i1
  %frombool2 = zext i1 %tobool1 to i8
  store i8 %frombool2, ptr %checkUsageLeak, align 1
  %debugEnabled = getelementptr inbounds %"struct.facebook::velox::memory::MemoryManagerOptions", ptr %ref.tmp, i32 0, i32 5
  %2 = load i8, ptr @_ZN3fLB37FLAGS_velox_memory_pool_debug_enabledE, align 1
  %tobool3 = trunc i8 %2 to i1
  %frombool4 = zext i1 %tobool3 to i8
  store i8 %frombool4, ptr %debugEnabled, align 2
  %coreOnAllocationFailureEnabled = getelementptr inbounds %"struct.facebook::velox::memory::MemoryManagerOptions", ptr %ref.tmp, i32 0, i32 6
  store i8 0, ptr %coreOnAllocationFailureEnabled, align 1
  %allocator = getelementptr inbounds %"struct.facebook::velox::memory::MemoryManagerOptions", ptr %ref.tmp, i32 0, i32 7
  %call = call noundef ptr @_ZN8facebook5velox6memory15MemoryAllocator11getInstanceEv()
  store ptr %call, ptr %allocator, align 8
  %arbitratorKind = getelementptr inbounds %"struct.facebook::velox::memory::MemoryManagerOptions", ptr %ref.tmp, i32 0, i32 8
  call void @_ZNSt7__cxx1112basic_stringIcSt11char_traitsIcESaIcEEC1Ev(ptr noundef nonnull align 8 dereferenceable(32) %arbitratorKind) #6
  %memoryPoolInitCapacity = getelementptr inbounds %"struct.facebook::velox::memory::MemoryManagerOptions", ptr %ref.tmp, i32 0, i32 9
  store i64 268435456, ptr %memoryPoolInitCapacity, align 8
  %memoryPoolTransferCapacity = getelementptr inbounds %"struct.facebook::velox::memory::MemoryManagerOptions", ptr %ref.tmp, i32 0, i32 10
  store i64 33554432, ptr %memoryPoolTransferCapacity, align 8
  %memoryReclaimWaitMs = getelementptr inbounds %"struct.facebook::velox::memory::MemoryManagerOptions", ptr %ref.tmp, i32 0, i32 11
  store i64 300000, ptr %memoryReclaimWaitMs, align 8
  %arbitrationStateCheckCb = getelementptr inbounds %"struct.facebook::velox::memory::MemoryManagerOptions", ptr %ref.tmp, i32 0, i32 12
  call void @_ZNSt8functionIFvRN8facebook5velox6memory10MemoryPoolEEEC2EDn(ptr noundef nonnull align 8 dereferenceable(32) %arbitrationStateCheckCb, ptr null) #6
  %call5 = invoke noundef nonnull align 8 dereferenceable(176) ptr @_ZN8facebook5velox6memory13MemoryManager11getInstanceERKNS1_20MemoryManagerOptionsE(ptr noundef nonnull align 8 dereferenceable(128) %ref.tmp)
          to label %invoke.cont unwind label %lpad

invoke.cont:                                      ; preds = %entry
  call void @_ZN8facebook5velox6memory20MemoryManagerOptionsD2Ev(ptr noundef nonnull align 8 dereferenceable(128) %ref.tmp) #6
  ret ptr %call5

lpad:                                             ; preds = %entry
  %3 = landingpad { ptr, i32 }
          cleanup
  %4 = extractvalue { ptr, i32 } %3, 0
  store ptr %4, ptr %exn.slot, align 8
  %5 = extractvalue { ptr, i32 } %3, 1
  store i32 %5, ptr %ehselector.slot, align 4
  call void @_ZN8facebook5velox6memory20MemoryManagerOptionsD2Ev(ptr noundef nonnull align 8 dereferenceable(128) %ref.tmp) #6
  br label %eh.resume

eh.resume:                                        ; preds = %lpad
  %exn = load ptr, ptr %exn.slot, align 8
  %sel = load i32, ptr %ehselector.slot, align 4
  %lpad.val = insertvalue { ptr, i32 } poison, ptr %exn, 0
  %lpad.val6 = insertvalue { ptr, i32 } %lpad.val, i32 %sel, 1
  resume { ptr, i32 } %lpad.val6
}