; Function Attrs: mustprogress uwtable
define noundef nonnull align 8 dereferenceable(176) ptr @_ZN8facebook5velox6memory20defaultMemoryManagerEv() local_unnamed_addr #0 personality ptr @__gxx_personality_v0 {
entry:
  %ref.tmp = alloca %"struct.facebook::velox::memory::MemoryManagerOptions", align 8
  store i16 64, ptr %ref.tmp, align 8
  %capacity = getelementptr inbounds i8, ptr %ref.tmp, i64 8
  store i64 9223372036854775807, ptr %capacity, align 8
  %queryMemoryCapacity = getelementptr inbounds i8, ptr %ref.tmp, i64 16
  store i64 9223372036854775807, ptr %queryMemoryCapacity, align 8
  %trackDefaultUsage = getelementptr inbounds i8, ptr %ref.tmp, i64 24
  %0 = load i8, ptr @_ZN3fLB60FLAGS_velox_enable_memory_usage_track_in_default_memory_poolE, align 1
  %1 = and i8 %0, 1
  store i8 %1, ptr %trackDefaultUsage, align 8
  %checkUsageLeak = getelementptr inbounds i8, ptr %ref.tmp, i64 25
  %2 = load i8, ptr @_ZN3fLB37FLAGS_velox_memory_leak_check_enabledE, align 1
  %3 = and i8 %2, 1
  store i8 %3, ptr %checkUsageLeak, align 1
  %debugEnabled = getelementptr inbounds i8, ptr %ref.tmp, i64 26
  %4 = load i8, ptr @_ZN3fLB37FLAGS_velox_memory_pool_debug_enabledE, align 1
  %5 = and i8 %4, 1
  store i8 %5, ptr %debugEnabled, align 2
  %coreOnAllocationFailureEnabled = getelementptr inbounds i8, ptr %ref.tmp, i64 27
  store i8 0, ptr %coreOnAllocationFailureEnabled, align 1
  %allocator = getelementptr inbounds i8, ptr %ref.tmp, i64 32
  %call = tail call noundef ptr @_ZN8facebook5velox6memory15MemoryAllocator11getInstanceEv()
  store ptr %call, ptr %allocator, align 8
  %arbitratorKind = getelementptr inbounds i8, ptr %ref.tmp, i64 40
  call void @_ZNSt7__cxx1112basic_stringIcSt11char_traitsIcESaIcEEC1Ev(ptr noundef nonnull align 8 dereferenceable(32) %arbitratorKind) #19
  %memoryPoolInitCapacity = getelementptr inbounds i8, ptr %ref.tmp, i64 72
  store i64 268435456, ptr %memoryPoolInitCapacity, align 8
  %memoryPoolTransferCapacity = getelementptr inbounds i8, ptr %ref.tmp, i64 80
  store i64 33554432, ptr %memoryPoolTransferCapacity, align 8
  %memoryReclaimWaitMs = getelementptr inbounds i8, ptr %ref.tmp, i64 88
  store i64 300000, ptr %memoryReclaimWaitMs, align 8
  %arbitrationStateCheckCb = getelementptr inbounds i8, ptr %ref.tmp, i64 96
  call void @llvm.memset.p0.i64(ptr noundef nonnull align 8 dereferenceable(32) %arbitrationStateCheckCb, i8 0, i64 32, i1 false)
  %6 = load atomic i8, ptr @_ZGVZN8facebook5velox6memory13MemoryManager11getInstanceERKNS1_20MemoryManagerOptionsEE7manager acquire, align 8
  %guard.uninitialized.i = icmp eq i8 %6, 0
  br i1 %guard.uninitialized.i, label %init.check.i, label %invoke.cont, !prof !30

init.check.i:                                     ; preds = %entry
  %7 = call i32 @__cxa_guard_acquire(ptr nonnull @_ZGVZN8facebook5velox6memory13MemoryManager11getInstanceERKNS1_20MemoryManagerOptionsEE7manager) #19
  %tobool.not.i = icmp eq i32 %7, 0
  br i1 %tobool.not.i, label %invoke.cont, label %init.i

init.i:                                           ; preds = %init.check.i
  invoke void @_ZN8facebook5velox6memory13MemoryManagerC1ERKNS1_20MemoryManagerOptionsE(ptr noundef nonnull align 8 dereferenceable(176) @_ZZN8facebook5velox6memory13MemoryManager11getInstanceERKNS1_20MemoryManagerOptionsEE7manager, ptr noundef nonnull align 8 dereferenceable(128) %ref.tmp)
          to label %invoke.cont.i unwind label %lpad.i

invoke.cont.i:                                    ; preds = %init.i
  %8 = call i32 @__cxa_atexit(ptr nonnull @_ZN8facebook5velox6memory13MemoryManagerD1Ev, ptr nonnull @_ZZN8facebook5velox6memory13MemoryManager11getInstanceERKNS1_20MemoryManagerOptionsEE7manager, ptr nonnull @__dso_handle) #19
  call void @__cxa_guard_release(ptr nonnull @_ZGVZN8facebook5velox6memory13MemoryManager11getInstanceERKNS1_20MemoryManagerOptionsEE7manager) #19
  br label %invoke.cont

lpad.i:                                           ; preds = %init.i
  %9 = landingpad { ptr, i32 }
          cleanup
  call void @__cxa_guard_abort(ptr nonnull @_ZGVZN8facebook5velox6memory13MemoryManager11getInstanceERKNS1_20MemoryManagerOptionsEE7manager) #19
  call void @_ZN8facebook5velox6memory20MemoryManagerOptionsD2Ev(ptr noundef nonnull align 8 dereferenceable(128) %ref.tmp) #19
  resume { ptr, i32 } %9

invoke.cont:                                      ; preds = %invoke.cont.i, %init.check.i, %entry
  %_M_manager.i.i.i = getelementptr inbounds i8, ptr %ref.tmp, i64 112
  %10 = load ptr, ptr %_M_manager.i.i.i, align 8
  %tobool.not.i.i.i = icmp eq ptr %10, null
  br i1 %tobool.not.i.i.i, label %_ZN8facebook5velox6memory20MemoryManagerOptionsD2Ev.exit, label %if.then.i.i.i

if.then.i.i.i:                                    ; preds = %invoke.cont
  %call.i.i.i = invoke noundef zeroext i1 %10(ptr noundef nonnull align 8 dereferenceable(16) %arbitrationStateCheckCb, ptr noundef nonnull align 8 dereferenceable(16) %arbitrationStateCheckCb, i32 noundef 3)
          to label %_ZN8facebook5velox6memory20MemoryManagerOptionsD2Ev.exit unwind label %terminate.lpad.i.i.i

terminate.lpad.i.i.i:                             ; preds = %if.then.i.i.i
  %11 = landingpad { ptr, i32 }
          catch ptr null
  %12 = extractvalue { ptr, i32 } %11, 0
  call void @__clang_call_terminate(ptr %12) #21
  unreachable

_ZN8facebook5velox6memory20MemoryManagerOptionsD2Ev.exit: ; preds = %invoke.cont, %if.then.i.i.i
  call void @_ZNSt7__cxx1112basic_stringIcSt11char_traitsIcESaIcEED1Ev(ptr noundef nonnull align 8 dereferenceable(32) %arbitratorKind) #19
  ret ptr @_ZZN8facebook5velox6memory13MemoryManager11getInstanceERKNS1_20MemoryManagerOptionsEE7manager
}